target datalayout = "e-m:e-p270:32:32-p271:32:32-p272:64:64-i64:64-i128:128-f80:128-n8:16:32:64-S128"
target triple = "x86_64-pc-linux-gnu"

; Function Attrs: nounwind uwtable
define internal i32 @_warc_bid(ptr noundef %0, i32 noundef %1) #0 {
  %3 = alloca i32, align 4
  %4 = alloca ptr, align 8
  %5 = alloca i32, align 4
  %6 = alloca ptr, align 8
  %7 = alloca i64, align 8
  %8 = alloca i32, align 4
  %9 = alloca i32, align 4
  store ptr %0, ptr %4, align 8, !tbaa !9
  store i32 %1, ptr %5, align 4, !tbaa !11
  call void @llvm.lifetime.start.p0(i64 8, ptr %6) #10
  call void @llvm.lifetime.start.p0(i64 8, ptr %7) #10
  call void @llvm.lifetime.start.p0(i64 4, ptr %8) #10
  %10 = load ptr, ptr %4, align 8, !tbaa !9
  %11 = call ptr @__archive_read_ahead(ptr noundef %10, i64 noundef 12, ptr noundef %7)
  store ptr %11, ptr %6, align 8, !tbaa !15
  %12 = icmp eq ptr %11, null
  br i1 %12, label %13, label %14

13:                                               ; preds = %2
  store i32 -1, ptr %3, align 4
  store i32 1, ptr %9, align 4
  br label %30

14:                                               ; preds = %2
  %15 = load i64, ptr %7, align 8, !tbaa !17
  %16 = icmp slt i64 %15, 12
  br i1 %16, label %17, label %18

17:                                               ; preds = %14
  store i32 -1, ptr %3, align 4
  store i32 1, ptr %9, align 4
  br label %30

18:                                               ; preds = %14
  br label %19

19:                                               ; preds = %18
  %20 = load ptr, ptr %6, align 8, !tbaa !15
  %21 = load i64, ptr %7, align 8, !tbaa !17
  %22 = call i32 @_warc_rdver(ptr noundef %20, i64 noundef %21)
  store i32 %22, ptr %8, align 4, !tbaa !11
  %23 = load i32, ptr %8, align 4, !tbaa !11
  %24 = icmp ult i32 %23, 1200
  br i1 %24, label %28, label %25

25:                                               ; preds = %19
  %26 = load i32, ptr %8, align 4, !tbaa !11
  %27 = icmp ugt i32 %26, 10000
  br i1 %27, label %28, label %29

28:                                               ; preds = %25, %19
  store i32 -1, ptr %3, align 4
  store i32 1, ptr %9, align 4
  br label %30

29:                                               ; preds = %25
  store i32 64, ptr %3, align 4
  store i32 1, ptr %9, align 4
  br label %30

30:                                               ; preds = %29, %28, %17, %13
  call void @llvm.lifetime.end.p0(i64 4, ptr %8) #10
  call void @llvm.lifetime.end.p0(i64 8, ptr %7) #10
  call void @llvm.lifetime.end.p0(i64 8, ptr %6) #10
  %31 = load i32, ptr %3, align 4
  ret i32 %31
}