; Function Attrs: nounwind uwtable
define internal range(i32 -1, 65) i32 @_warc_bid(ptr noundef %0, i32 %1) #0 {
  %3 = alloca i64, align 8
  call void @llvm.lifetime.start.p0(i64 8, ptr nonnull %3) #16
  %4 = call ptr @__archive_read_ahead(ptr noundef %0, i64 noundef 12, ptr noundef nonnull %3) #16
  %5 = icmp eq ptr %4, null
  br i1 %5, label %12, label %6

6:                                                ; preds = %2
  %7 = load i64, ptr %3, align 8, !tbaa !4
  %8 = icmp slt i64 %7, 12
  br i1 %8, label %12, label %9

9:                                                ; preds = %6
  %10 = call fastcc i32 @_warc_rdver(ptr noundef %4, i64 noundef %7)
  %11 = add nsw i32 %10, -10001
  %or.cond = icmp ult i32 %11, -8801
  %. = select i1 %or.cond, i32 -1, i32 64
  br label %12

12:                                               ; preds = %9, %6, %2
  %.0 = phi i32 [ -1, %2 ], [ -1, %6 ], [ %., %9 ]
  call void @llvm.lifetime.end.p0(i64 8, ptr nonnull %3) #16
  ret i32 %.0
}